target datalayout = "e-m:e-p270:32:32-p271:32:32-p272:64:64-i64:64-i128:128-f80:128-n8:16:32:64-S128"
target triple = "x86_64-pc-linux-gnu"

%struct.UriParserStateStructA = type { ptr, i32, ptr, ptr }
%struct.UriUriStructA = type { %struct.UriTextRangeStructA, %struct.UriTextRangeStructA, %struct.UriTextRangeStructA, %struct.UriHostDataStructA, %struct.UriTextRangeStructA, ptr, ptr, %struct.UriTextRangeStructA, %struct.UriTextRangeStructA, i32, i32, ptr }
%struct.UriHostDataStructA = type { ptr, ptr, %struct.UriTextRangeStructA }
%struct.UriTextRangeStructA = type { ptr, ptr }

; Function Attrs: inlinehint nounwind uwtable
define internal ptr @uriParseUriTailTwoA(ptr noundef %0, ptr noundef %1, ptr noundef %2, ptr noundef %3) #4 {
  %5 = alloca ptr, align 8
  %6 = alloca ptr, align 8
  %7 = alloca ptr, align 8
  %8 = alloca ptr, align 8
  %9 = alloca ptr, align 8
  %10 = alloca ptr, align 8
  %11 = alloca i32, align 4
  store ptr %0, ptr %6, align 8, !tbaa !3
  store ptr %1, ptr %7, align 8, !tbaa !8
  store ptr %2, ptr %8, align 8, !tbaa !8
  store ptr %3, ptr %9, align 8, !tbaa !10
  %12 = load ptr, ptr %7, align 8, !tbaa !8
  %13 = load ptr, ptr %8, align 8, !tbaa !8
  %14 = icmp uge ptr %12, %13
  br i1 %14, label %15, label %17

15:                                               ; preds = %4
  %16 = load ptr, ptr %8, align 8, !tbaa !8
  store ptr %16, ptr %5, align 8
  br label %49

17:                                               ; preds = %4
  %18 = load ptr, ptr %7, align 8, !tbaa !8
  %19 = load i8, ptr %18, align 1, !tbaa !57
  %20 = sext i8 %19 to i32
  switch i32 %20, label %47 [
    i32 35, label %21
  ]

21:                                               ; preds = %17
  call void @llvm.lifetime.start.p0(i64 8, ptr %10) #7
  %22 = load ptr, ptr %6, align 8, !tbaa !3
  %23 = load ptr, ptr %7, align 8, !tbaa !8
  %24 = getelementptr inbounds i8, ptr %23, i64 1
  %25 = load ptr, ptr %8, align 8, !tbaa !8
  %26 = load ptr, ptr %9, align 8, !tbaa !10
  %27 = call ptr @uriParseQueryFragA(ptr noundef %22, ptr noundef %24, ptr noundef %25, ptr noundef %26)
  store ptr %27, ptr %10, align 8, !tbaa !8
  %28 = load ptr, ptr %10, align 8, !tbaa !8
  %29 = icmp eq ptr %28, null
  br i1 %29, label %30, label %31

30:                                               ; preds = %21
  store ptr null, ptr %5, align 8
  store i32 1, ptr %11, align 4
  br label %46

31:                                               ; preds = %21
  %32 = load ptr, ptr %7, align 8, !tbaa !8
  %33 = getelementptr inbounds i8, ptr %32, i64 1
  %34 = load ptr, ptr %6, align 8, !tbaa !3
  %35 = getelementptr inbounds nuw %struct.UriParserStateStructA, ptr %34, i32 0, i32 0
  %36 = load ptr, ptr %35, align 8, !tbaa !12
  %37 = getelementptr inbounds nuw %struct.UriUriStructA, ptr %36, i32 0, i32 8
  %38 = getelementptr inbounds nuw %struct.UriTextRangeStructA, ptr %37, i32 0, i32 0
  store ptr %33, ptr %38, align 8, !tbaa !54
  %39 = load ptr, ptr %10, align 8, !tbaa !8
  %40 = load ptr, ptr %6, align 8, !tbaa !3
  %41 = getelementptr inbounds nuw %struct.UriParserStateStructA, ptr %40, i32 0, i32 0
  %42 = load ptr, ptr %41, align 8, !tbaa !12
  %43 = getelementptr inbounds nuw %struct.UriUriStructA, ptr %42, i32 0, i32 8
  %44 = getelementptr inbounds nuw %struct.UriTextRangeStructA, ptr %43, i32 0, i32 1
  store ptr %39, ptr %44, align 8, !tbaa !55
  %45 = load ptr, ptr %10, align 8, !tbaa !8
  store ptr %45, ptr %5, align 8
  store i32 1, ptr %11, align 4
  br label %46

46:                                               ; preds = %31, %30
  call void @llvm.lifetime.end.p0(i64 8, ptr %10) #7
  br label %49

47:                                               ; preds = %17
  %48 = load ptr, ptr %7, align 8, !tbaa !8
  store ptr %48, ptr %5, align 8
  br label %49

49:                                               ; preds = %47, %46, %15
  %50 = load ptr, ptr %5, align 8
  ret ptr %50
}

; Function Attrs: inlinehint nounwind uwtable
define internal ptr @uriParseUriTailA(ptr noundef %0, ptr noundef %1, ptr noundef %2, ptr noundef %3) #4 {
  %5 = alloca ptr, align 8
  %6 = alloca ptr, align 8
  %7 = alloca ptr, align 8
  %8 = alloca ptr, align 8
  %9 = alloca ptr, align 8
  %10 = alloca ptr, align 8
  %11 = alloca i32, align 4
  %12 = alloca ptr, align 8
  store ptr %0, ptr %6, align 8, !tbaa !3
  store ptr %1, ptr %7, align 8, !tbaa !8
  store ptr %2, ptr %8, align 8, !tbaa !8
  store ptr %3, ptr %9, align 8, !tbaa !10
  %13 = load ptr, ptr %7, align 8, !tbaa !8
  %14 = load ptr, ptr %8, align 8, !tbaa !8
  %15 = icmp uge ptr %13, %14
  br i1 %15, label %16, label %18

16:                                               ; preds = %4
  %17 = load ptr, ptr %8, align 8, !tbaa !8
  store ptr %17, ptr %5, align 8
  br label %80

18:                                               ; preds = %4
  %19 = load ptr, ptr %7, align 8, !tbaa !8
  %20 = load i8, ptr %19, align 1, !tbaa !57
  %21 = sext i8 %20 to i32
  switch i32 %21, label %78 [
    i32 35, label %22
    i32 63, label %48
  ]

22:                                               ; preds = %18
  call void @llvm.lifetime.start.p0(i64 8, ptr %10) #7
  %23 = load ptr, ptr %6, align 8, !tbaa !3
  %24 = load ptr, ptr %7, align 8, !tbaa !8
  %25 = getelementptr inbounds i8, ptr %24, i64 1
  %26 = load ptr, ptr %8, align 8, !tbaa !8
  %27 = load ptr, ptr %9, align 8, !tbaa !10
  %28 = call ptr @uriParseQueryFragA(ptr noundef %23, ptr noundef %25, ptr noundef %26, ptr noundef %27)
  store ptr %28, ptr %10, align 8, !tbaa !8
  %29 = load ptr, ptr %10, align 8, !tbaa !8
  %30 = icmp eq ptr %29, null
  br i1 %30, label %31, label %32

31:                                               ; preds = %22
  store ptr null, ptr %5, align 8
  store i32 1, ptr %11, align 4
  br label %47

32:                                               ; preds = %22
  %33 = load ptr, ptr %7, align 8, !tbaa !8
  %34 = getelementptr inbounds i8, ptr %33, i64 1
  %35 = load ptr, ptr %6, align 8, !tbaa !3
  %36 = getelementptr inbounds nuw %struct.UriParserStateStructA, ptr %35, i32 0, i32 0
  %37 = load ptr, ptr %36, align 8, !tbaa !12
  %38 = getelementptr inbounds nuw %struct.UriUriStructA, ptr %37, i32 0, i32 8
  %39 = getelementptr inbounds nuw %struct.UriTextRangeStructA, ptr %38, i32 0, i32 0
  store ptr %34, ptr %39, align 8, !tbaa !54
  %40 = load ptr, ptr %10, align 8, !tbaa !8
  %41 = load ptr, ptr %6, align 8, !tbaa !3
  %42 = getelementptr inbounds nuw %struct.UriParserStateStructA, ptr %41, i32 0, i32 0
  %43 = load ptr, ptr %42, align 8, !tbaa !12
  %44 = getelementptr inbounds nuw %struct.UriUriStructA, ptr %43, i32 0, i32 8
  %45 = getelementptr inbounds nuw %struct.UriTextRangeStructA, ptr %44, i32 0, i32 1
  store ptr %40, ptr %45, align 8, !tbaa !55
  %46 = load ptr, ptr %10, align 8, !tbaa !8
  store ptr %46, ptr %5, align 8
  store i32 1, ptr %11, align 4
  br label %47

47:                                               ; preds = %32, %31
  call void @llvm.lifetime.end.p0(i64 8, ptr %10) #7
  br label %80

48:                                               ; preds = %18
  call void @llvm.lifetime.start.p0(i64 8, ptr %12) #7
  %49 = load ptr, ptr %6, align 8, !tbaa !3
  %50 = load ptr, ptr %7, align 8, !tbaa !8
  %51 = getelementptr inbounds i8, ptr %50, i64 1
  %52 = load ptr, ptr %8, align 8, !tbaa !8
  %53 = load ptr, ptr %9, align 8, !tbaa !10
  %54 = call ptr @uriParseQueryFragA(ptr noundef %49, ptr noundef %51, ptr noundef %52, ptr noundef %53)
  store ptr %54, ptr %12, align 8, !tbaa !8
  %55 = load ptr, ptr %12, align 8, !tbaa !8
  %56 = icmp eq ptr %55, null
  br i1 %56, label %57, label %58

57:                                               ; preds = %48
  store ptr null, ptr %5, align 8
  store i32 1, ptr %11, align 4
  br label %77

58:                                               ; preds = %48
  %59 = load ptr, ptr %7, align 8, !tbaa !8
  %60 = getelementptr inbounds i8, ptr %59, i64 1
  %61 = load ptr, ptr %6, align 8, !tbaa !3
  %62 = getelementptr inbounds nuw %struct.UriParserStateStructA, ptr %61, i32 0, i32 0
  %63 = load ptr, ptr %62, align 8, !tbaa !12
  %64 = getelementptr inbounds nuw %struct.UriUriStructA, ptr %63, i32 0, i32 7
  %65 = getelementptr inbounds nuw %struct.UriTextRangeStructA, ptr %64, i32 0, i32 0
  store ptr %60, ptr %65, align 8, !tbaa !52
  %66 = load ptr, ptr %12, align 8, !tbaa !8
  %67 = load ptr, ptr %6, align 8, !tbaa !3
  %68 = getelementptr inbounds nuw %struct.UriParserStateStructA, ptr %67, i32 0, i32 0
  %69 = load ptr, ptr %68, align 8, !tbaa !12
  %70 = getelementptr inbounds nuw %struct.UriUriStructA, ptr %69, i32 0, i32 7
  %71 = getelementptr inbounds nuw %struct.UriTextRangeStructA, ptr %70, i32 0, i32 1
  store ptr %66, ptr %71, align 8, !tbaa !53
  %72 = load ptr, ptr %6, align 8, !tbaa !3
  %73 = load ptr, ptr %12, align 8, !tbaa !8
  %74 = load ptr, ptr %8, align 8, !tbaa !8
  %75 = load ptr, ptr %9, align 8, !tbaa !10
  %76 = call ptr @uriParseUriTailTwoA(ptr noundef %72, ptr noundef %73, ptr noundef %74, ptr noundef %75)
  store ptr %76, ptr %5, align 8
  store i32 1, ptr %11, align 4
  br label %77

77:                                               ; preds = %58, %57
  call void @llvm.lifetime.end.p0(i64 8, ptr %12) #7
  br label %80

78:                                               ; preds = %18
  %79 = load ptr, ptr %7, align 8, !tbaa !8
  store ptr %79, ptr %5, align 8
  br label %80

80:                                               ; preds = %78, %77, %47, %16
  %81 = load ptr, ptr %5, align 8
  ret ptr %81
}